target datalayout = "e-m:e-p270:32:32-p271:32:32-p272:64:64-i64:64-i128:128-f80:128-n8:16:32:64-S128"
target triple = "x86_64-pc-linux-gnu"

%struct._GLFWlibrary = type { i32, %struct.GLFWallocator, %struct._GLFWplatform, %struct.anon, ptr, ptr, ptr, ptr, i32, i32, [16 x %struct._GLFWjoystick], ptr, i32, %struct._GLFWtls, %struct._GLFWtls, %struct._GLFWmutex, %struct.anon.8, %struct.anon.9, %struct.anon.10, %struct.anon.11, %struct.anon.12, %struct._GLFWlibraryWayland, %struct._GLFWlibraryX11, %struct._GLFWlibraryNull, %struct._GLFWlibraryGLX, %struct._GLFWlibraryLinux }
%struct.GLFWallocator = type { ptr, ptr, ptr, ptr }
%struct._GLFWplatform = type { i32, ptr, ptr, ptr, ptr, ptr, ptr, ptr, ptr, ptr, ptr, ptr, ptr, ptr, ptr, ptr, ptr, ptr, ptr, ptr, ptr, ptr, ptr, ptr, ptr, ptr, ptr, ptr, ptr, ptr, ptr, ptr, ptr, ptr, ptr, ptr, ptr, ptr, ptr, ptr, ptr, ptr, ptr, ptr, ptr, ptr, ptr, ptr, ptr, ptr, ptr, ptr, ptr, ptr, ptr, ptr, ptr, ptr, ptr, ptr, ptr, ptr, ptr, ptr, ptr, ptr, ptr, ptr, ptr, ptr, ptr, ptr }
%struct.anon = type { %struct._GLFWinitconfig, %struct._GLFWfbconfig, %struct._GLFWwndconfig, %struct._GLFWctxconfig, i32 }
%struct._GLFWinitconfig = type { i32, i32, i32, ptr, %struct.anon.0, %struct.anon.1, %struct.anon.2 }
%struct.anon.0 = type { i32, i32 }
%struct.anon.1 = type { i32 }
%struct.anon.2 = type { i32 }
%struct._GLFWfbconfig = type { i32, i32, i32, i32, i32, i32, i32, i32, i32, i32, i32, i32, i32, i32, i32, i32, i64 }
%struct._GLFWwndconfig = type { i32, i32, i32, i32, ptr, i32, i32, i32, i32, i32, i32, i32, i32, i32, i32, i32, i32, %struct.anon.3, %struct.anon.4, %struct.anon.5, %struct.anon.6 }
%struct.anon.3 = type { [256 x i8] }
%struct.anon.4 = type { [256 x i8], [256 x i8] }
%struct.anon.5 = type { i32, i32 }
%struct.anon.6 = type { [256 x i8] }
%struct._GLFWctxconfig = type { i32, i32, i32, i32, i32, i32, i32, i32, i32, i32, ptr, %struct.anon.7 }
%struct.anon.7 = type { i32 }
%struct._GLFWjoystick = type { i32, i32, ptr, i32, ptr, i32, ptr, i32, [128 x i8], ptr, [33 x i8], ptr, %struct._GLFWjoystickLinux }
%struct._GLFWjoystickLinux = type { i32, [4096 x i8], [512 x i32], [64 x i32], [64 x %struct.input_absinfo], [4 x [2 x i32]] }
%struct.input_absinfo = type { i32, i32, i32, i32, i32, i32 }
%struct._GLFWtls = type { %struct._GLFWtlsPOSIX }
%struct._GLFWtlsPOSIX = type { i32, i32 }
%struct._GLFWmutex = type { %struct._GLFWmutexPOSIX }
%struct._GLFWmutexPOSIX = type { i32, %union.pthread_mutex_t }
%union.pthread_mutex_t = type { %struct.__pthread_mutex_s }
%struct.__pthread_mutex_s = type { i32, i32, i32, i32, i32, i16, i16, %struct.__pthread_internal_list }
%struct.__pthread_internal_list = type { ptr, ptr }
%struct.anon.8 = type { i64, %struct._GLFWtimerPOSIX }
%struct._GLFWtimerPOSIX = type { i32, i64 }
%struct.anon.9 = type { i32, ptr, i32, i32, i32, i32, i32, i32, i32, i32, i32, i32, i32, i32, i32, i32, i32, i32, i32, i32, ptr, ptr, ptr, ptr, ptr, ptr, ptr, ptr, ptr, ptr, ptr, ptr, ptr, ptr, ptr, ptr, ptr, ptr, ptr }
%struct.anon.10 = type { ptr, ptr, ptr, ptr, ptr, ptr, ptr, ptr }
%struct.anon.11 = type { i32, ptr, [2 x ptr], ptr, i32, i32, i32, i32, i32, i32, i32 }
%struct.anon.12 = type { ptr, ptr }
%struct._GLFWlibraryWayland = type { ptr, ptr, ptr, ptr, ptr, ptr, ptr, ptr, ptr, ptr, ptr, ptr, ptr, ptr, ptr, ptr, ptr, ptr, ptr, i32, ptr, ptr, ptr, ptr, i32, ptr, ptr, ptr, ptr, ptr, i32, i32, i32, i32, i32, i32, i32, ptr, [256 x i16], [349 x i16], [349 x [5 x i8]], %struct.anon.13, ptr, ptr, %struct.anon.14, %struct.anon.15, %struct.anon.16, %struct.anon.17 }
%struct.anon.13 = type { ptr, ptr, ptr, ptr, ptr, i32, i32, i32, i32, i32, i32, i32, ptr, ptr, ptr, ptr, ptr, ptr, ptr, ptr, ptr, ptr, ptr, ptr, ptr, ptr, ptr, ptr, ptr, ptr, ptr, ptr }
%struct.anon.14 = type { ptr, ptr, ptr, ptr, ptr, ptr, ptr, ptr, ptr, ptr, ptr, ptr, ptr, ptr, ptr, ptr, ptr, ptr, ptr, ptr }
%struct.anon.15 = type { ptr, ptr, ptr, ptr, ptr }
%struct.anon.16 = type { ptr, ptr, ptr, ptr }
%struct.anon.17 = type { ptr, ptr, ptr, i32, ptr, ptr, ptr, ptr, ptr, ptr, ptr, ptr, ptr, ptr, ptr, ptr, ptr, ptr, ptr, ptr, ptr, ptr, ptr, ptr, ptr, ptr, ptr, ptr, ptr }
%struct._GLFWlibraryX11 = type { ptr, i32, i64, float, float, i64, i64, i32, ptr, ptr, i32, ptr, ptr, [349 x [5 x i8]], [256 x i16], [349 x i16], double, double, ptr, [2 x i32], i64, i64, i64, i64, i64, i64, i64, i64, i64, i64, i64, i64, i64, i64, i64, i64, i64, i64, i64, i64, i64, i64, i64, i64, i64, i64, i64, i64, i64, i64, i64, i64, i64, i64, i64, i64, i64, i64, i64, i64, i64, i64, i64, i64, i64, i64, i64, i64, i64, i64, %struct.anon.18, %struct.anon.19, %struct.anon.20, %struct.anon.21, %struct.anon.22, %struct.anon.23, %struct.anon.24, %struct.anon.25, %struct.anon.26, %struct.anon.27, %struct.anon.28, %struct.anon.29, %struct.anon.30 }
%struct.anon.18 = type { ptr, i32, ptr, ptr, ptr, ptr, ptr, ptr, ptr, ptr, ptr, ptr, ptr, ptr, ptr, ptr, ptr, ptr, ptr, ptr, ptr, ptr, ptr, ptr, ptr, ptr, ptr, ptr, ptr, ptr, ptr, ptr, ptr, ptr, ptr, ptr, ptr, ptr, ptr, ptr, ptr, ptr, ptr, ptr, ptr, ptr, ptr, ptr, ptr, ptr, ptr, ptr, ptr, ptr, ptr, ptr, ptr, ptr, ptr, ptr, ptr, ptr, ptr, ptr, ptr, ptr, ptr, ptr, ptr, ptr, ptr, ptr, ptr, ptr, ptr, ptr, ptr, ptr, ptr, ptr, ptr, ptr, ptr, ptr, ptr, ptr, ptr, ptr }
%struct.anon.19 = type { ptr, ptr, ptr, ptr }
%struct.anon.20 = type { i32, ptr, i32, i32, i32, i32, i32, i32, ptr, ptr, ptr, ptr, ptr, ptr, ptr, ptr, ptr, ptr, ptr, ptr, ptr, ptr, ptr, ptr, ptr }
%struct.anon.21 = type { i32, i32, i32, i32, i32, i32, i32, i32, ptr, ptr, ptr, ptr, ptr, ptr, ptr, ptr, ptr }
%struct.anon.22 = type { i32, i32, i32, i32, i32 }
%struct.anon.23 = type { i32, i64, i64 }
%struct.anon.24 = type { ptr, ptr, ptr, ptr, ptr, ptr, ptr }
%struct.anon.25 = type { i32, ptr, i32, i32, ptr, ptr, ptr }
%struct.anon.26 = type { ptr, ptr }
%struct.anon.27 = type { i32, ptr, i32, i32, ptr, ptr, ptr, ptr }
%struct.anon.28 = type { i32, ptr, i32, i32, i32, i32, i32, ptr, ptr }
%struct.anon.29 = type { i32, ptr, i32, i32, i32, i32, ptr, ptr, ptr }
%struct.anon.30 = type { i32, ptr, i32, i32, i32, i32, ptr, ptr, ptr, ptr }
%struct._GLFWlibraryNull = type { i32, i32, ptr, ptr, [121 x i16], [349 x i8] }
%struct._GLFWlibraryGLX = type { i32, i32, i32, i32, ptr, ptr, ptr, ptr, ptr, ptr, ptr, ptr, ptr, ptr, ptr, ptr, ptr, ptr, ptr, ptr, ptr, ptr, ptr, ptr, i32, i32, i32, i32, i32, i32, i32, i32, i32, i32, i32, i32 }
%struct._GLFWlibraryLinux = type { i32, i32, %struct.re_pattern_buffer, i32, i32 }
%struct.re_pattern_buffer = type { ptr, i64, i64, i64, ptr, ptr, i64, i8 }
%struct._GLFWwindow = type { ptr, i32, i32, i32, i32, i32, i32, i32, ptr, i32, %struct.GLFWvidmode, ptr, ptr, ptr, i32, i32, i32, i32, i32, i32, i32, i32, i32, i32, [8 x i8], [349 x i8], double, double, i32, %struct._GLFWcontext, %struct.anon.33, %struct._GLFWwindowWayland, %struct._GLFWwindowX11, %struct._GLFWwindowNull }
%struct.GLFWvidmode = type { i32, i32, i32, i32, i32, i32 }
%struct._GLFWcontext = type { i32, i32, i32, i32, i32, i32, i32, i32, i32, i32, i32, ptr, ptr, ptr, ptr, ptr, ptr, ptr, ptr, ptr, %struct.anon.31, %struct.anon.32, %struct._GLFWcontextGLX }
%struct.anon.31 = type { ptr, ptr, ptr, ptr }
%struct.anon.32 = type { ptr, i32, i32, ptr }
%struct._GLFWcontextGLX = type { ptr, i64 }
%struct.anon.33 = type { ptr, ptr, ptr, ptr, ptr, ptr, ptr, ptr, ptr, ptr, ptr, ptr, ptr, ptr, ptr, ptr, ptr }
%struct._GLFWwindowWayland = type { i32, i32, i32, i32, i32, i32, i32, i32, i32, i32, i32, ptr, ptr, %struct.anon.34, %struct.anon.35, %struct.anon.36, %struct.anon.37, ptr, double, double, ptr, i32, ptr, i64, i64, ptr, i32, ptr, ptr, ptr, ptr, ptr, ptr, %struct.anon.38 }
%struct.anon.34 = type { ptr }
%struct.anon.35 = type { i32, i32, i32, i32, i32, i32 }
%struct.anon.36 = type { ptr, ptr, ptr, i32 }
%struct.anon.37 = type { ptr }
%struct.anon.38 = type { i32, ptr, %struct._GLFWfallbackEdgeWayland, %struct._GLFWfallbackEdgeWayland, %struct._GLFWfallbackEdgeWayland, %struct._GLFWfallbackEdgeWayland, ptr }
%struct._GLFWfallbackEdgeWayland = type { ptr, ptr, ptr }
%struct._GLFWwindowX11 = type { i64, i64, i64, ptr, i32, i32, i32, i32, i32, i32, i32, i32, i32, i32, i32, i32, [256 x i64] }
%struct._GLFWwindowNull = type { i32, i32, i32, i32, i32, i32, i32, i32, i32, i32, i32, float }

@_glfw = external global %struct._GLFWlibrary, align 8

; Function Attrs: inlinehint nounwind uwtable
define internal void @xdg_toplevel_set_max_size(ptr noundef %0, i32 noundef %1, i32 noundef %2) #1 {
  %4 = alloca ptr, align 8
  %5 = alloca i32, align 4
  %6 = alloca i32, align 4
  store ptr %0, ptr %4, align 8, !tbaa !254
  store i32 %1, ptr %5, align 4, !tbaa !129
  store i32 %2, ptr %6, align 4, !tbaa !129
  %7 = load ptr, ptr getelementptr inbounds nuw (%struct.anon.14, ptr getelementptr inbounds nuw (%struct._GLFWlibraryWayland, ptr getelementptr inbounds nuw (%struct._GLFWlibrary, ptr @_glfw, i32 0, i32 21), i32 0, i32 44), i32 0, i32 19), align 8, !tbaa !142
  %8 = load ptr, ptr %4, align 8, !tbaa !254
  %9 = load ptr, ptr getelementptr inbounds nuw (%struct.anon.14, ptr getelementptr inbounds nuw (%struct._GLFWlibraryWayland, ptr getelementptr inbounds nuw (%struct._GLFWlibrary, ptr @_glfw, i32 0, i32 21), i32 0, i32 44), i32 0, i32 18), align 8, !tbaa !140
  %10 = load ptr, ptr %4, align 8, !tbaa !254
  %11 = call i32 %9(ptr noundef %10)
  %12 = load i32, ptr %5, align 4, !tbaa !129
  %13 = load i32, ptr %6, align 4, !tbaa !129
  %14 = call ptr (ptr, i32, ptr, i32, i32, ...) %7(ptr noundef %8, i32 noundef 7, ptr noundef null, i32 noundef %11, i32 noundef 0, i32 noundef %12, i32 noundef %13)
  ret void
}

; Function Attrs: inlinehint nounwind uwtable
define internal void @xdg_toplevel_set_min_size(ptr noundef %0, i32 noundef %1, i32 noundef %2) #1 {
  %4 = alloca ptr, align 8
  %5 = alloca i32, align 4
  %6 = alloca i32, align 4
  store ptr %0, ptr %4, align 8, !tbaa !254
  store i32 %1, ptr %5, align 4, !tbaa !129
  store i32 %2, ptr %6, align 4, !tbaa !129
  %7 = load ptr, ptr getelementptr inbounds nuw (%struct.anon.14, ptr getelementptr inbounds nuw (%struct._GLFWlibraryWayland, ptr getelementptr inbounds nuw (%struct._GLFWlibrary, ptr @_glfw, i32 0, i32 21), i32 0, i32 44), i32 0, i32 19), align 8, !tbaa !142
  %8 = load ptr, ptr %4, align 8, !tbaa !254
  %9 = load ptr, ptr getelementptr inbounds nuw (%struct.anon.14, ptr getelementptr inbounds nuw (%struct._GLFWlibraryWayland, ptr getelementptr inbounds nuw (%struct._GLFWlibrary, ptr @_glfw, i32 0, i32 21), i32 0, i32 44), i32 0, i32 18), align 8, !tbaa !140
  %10 = load ptr, ptr %4, align 8, !tbaa !254
  %11 = call i32 %9(ptr noundef %10)
  %12 = load i32, ptr %5, align 4, !tbaa !129
  %13 = load i32, ptr %6, align 4, !tbaa !129
  %14 = call ptr (ptr, i32, ptr, i32, i32, ...) %7(ptr noundef %8, i32 noundef 8, ptr noundef null, i32 noundef %11, i32 noundef 0, i32 noundef %12, i32 noundef %13)
  ret void
}

; Function Attrs: nounwind uwtable
define internal void @updateXdgSizeLimits(ptr noundef %0) #0 {
  %2 = alloca ptr, align 8
  %3 = alloca i32, align 4
  %4 = alloca i32, align 4
  %5 = alloca i32, align 4
  %6 = alloca i32, align 4
  store ptr %0, ptr %2, align 8, !tbaa !3
  call void @llvm.lifetime.start.p0(i64 4, ptr %3) #9
  call void @llvm.lifetime.start.p0(i64 4, ptr %4) #9
  call void @llvm.lifetime.start.p0(i64 4, ptr %5) #9
  call void @llvm.lifetime.start.p0(i64 4, ptr %6) #9
  %7 = load ptr, ptr %2, align 8, !tbaa !3
  %8 = getelementptr inbounds nuw %struct._GLFWwindow, ptr %7, i32 0, i32 1
  %9 = load i32, ptr %8, align 8, !tbaa !261
  %10 = icmp ne i32 %9, 0
  br i1 %10, label %11, label %72

11:                                               ; preds = %1
  %12 = load ptr, ptr %2, align 8, !tbaa !3
  %13 = getelementptr inbounds nuw %struct._GLFWwindow, ptr %12, i32 0, i32 14
  %14 = load i32, ptr %13, align 8, !tbaa !262
  %15 = icmp eq i32 %14, -1
  br i1 %15, label %21, label %16

16:                                               ; preds = %11
  %17 = load ptr, ptr %2, align 8, !tbaa !3
  %18 = getelementptr inbounds nuw %struct._GLFWwindow, ptr %17, i32 0, i32 15
  %19 = load i32, ptr %18, align 4, !tbaa !263
  %20 = icmp eq i32 %19, -1
  br i1 %20, label %21, label %22

21:                                               ; preds = %16, %11
  store i32 0, ptr %4, align 4, !tbaa !129
  store i32 0, ptr %3, align 4, !tbaa !129
  br label %41

22:                                               ; preds = %16
  %23 = load ptr, ptr %2, align 8, !tbaa !3
  %24 = getelementptr inbounds nuw %struct._GLFWwindow, ptr %23, i32 0, i32 14
  %25 = load i32, ptr %24, align 8, !tbaa !262
  store i32 %25, ptr %3, align 4, !tbaa !129
  %26 = load ptr, ptr %2, align 8, !tbaa !3
  %27 = getelementptr inbounds nuw %struct._GLFWwindow, ptr %26, i32 0, i32 15
  %28 = load i32, ptr %27, align 4, !tbaa !263
  store i32 %28, ptr %4, align 4, !tbaa !129
  %29 = load ptr, ptr %2, align 8, !tbaa !3
  %30 = getelementptr inbounds nuw %struct._GLFWwindow, ptr %29, i32 0, i32 31
  %31 = getelementptr inbounds nuw %struct._GLFWwindowWayland, ptr %30, i32 0, i32 33
  %32 = getelementptr inbounds nuw %struct.anon.38, ptr %31, i32 0, i32 0
  %33 = load i32, ptr %32, align 8, !tbaa !174
  %34 = icmp ne i32 %33, 0
  br i1 %34, label %35, label %40

35:                                               ; preds = %22
  %36 = load i32, ptr %3, align 4, !tbaa !129
  %37 = add nsw i32 %36, 8
  store i32 %37, ptr %3, align 4, !tbaa !129
  %38 = load i32, ptr %4, align 4, !tbaa !129
  %39 = add nsw i32 %38, 28
  store i32 %39, ptr %4, align 4, !tbaa !129
  br label %40

40:                                               ; preds = %35, %22
  br label %41

41:                                               ; preds = %40, %21
  %42 = load ptr, ptr %2, align 8, !tbaa !3
  %43 = getelementptr inbounds nuw %struct._GLFWwindow, ptr %42, i32 0, i32 16
  %44 = load i32, ptr %43, align 8, !tbaa !264
  %45 = icmp eq i32 %44, -1
  br i1 %45, label %51, label %46

46:                                               ; preds = %41
  %47 = load ptr, ptr %2, align 8, !tbaa !3
  %48 = getelementptr inbounds nuw %struct._GLFWwindow, ptr %47, i32 0, i32 17
  %49 = load i32, ptr %48, align 4, !tbaa !265
  %50 = icmp eq i32 %49, -1
  br i1 %50, label %51, label %52

51:                                               ; preds = %46, %41
  store i32 0, ptr %6, align 4, !tbaa !129
  store i32 0, ptr %5, align 4, !tbaa !129
  br label %71

52:                                               ; preds = %46
  %53 = load ptr, ptr %2, align 8, !tbaa !3
  %54 = getelementptr inbounds nuw %struct._GLFWwindow, ptr %53, i32 0, i32 16
  %55 = load i32, ptr %54, align 8, !tbaa !264
  store i32 %55, ptr %5, align 4, !tbaa !129
  %56 = load ptr, ptr %2, align 8, !tbaa !3
  %57 = getelementptr inbounds nuw %struct._GLFWwindow, ptr %56, i32 0, i32 17
  %58 = load i32, ptr %57, align 4, !tbaa !265
  store i32 %58, ptr %6, align 4, !tbaa !129
  %59 = load ptr, ptr %2, align 8, !tbaa !3
  %60 = getelementptr inbounds nuw %struct._GLFWwindow, ptr %59, i32 0, i32 31
  %61 = getelementptr inbounds nuw %struct._GLFWwindowWayland, ptr %60, i32 0, i32 33
  %62 = getelementptr inbounds nuw %struct.anon.38, ptr %61, i32 0, i32 0
  %63 = load i32, ptr %62, align 8, !tbaa !174
  %64 = icmp ne i32 %63, 0
  br i1 %64, label %65, label %70

65:                                               ; preds = %52
  %66 = load i32, ptr %5, align 4, !tbaa !129
  %67 = add nsw i32 %66, 8
  store i32 %67, ptr %5, align 4, !tbaa !129
  %68 = load i32, ptr %6, align 4, !tbaa !129
  %69 = add nsw i32 %68, 28
  store i32 %69, ptr %6, align 4, !tbaa !129
  br label %70

70:                                               ; preds = %65, %52
  br label %71

71:                                               ; preds = %70, %51
  br label %81

72:                                               ; preds = %1
  %73 = load ptr, ptr %2, align 8, !tbaa !3
  %74 = getelementptr inbounds nuw %struct._GLFWwindow, ptr %73, i32 0, i32 31
  %75 = getelementptr inbounds nuw %struct._GLFWwindowWayland, ptr %74, i32 0, i32 0
  %76 = load i32, ptr %75, align 8, !tbaa !143
  store i32 %76, ptr %5, align 4, !tbaa !129
  store i32 %76, ptr %3, align 4, !tbaa !129
  %77 = load ptr, ptr %2, align 8, !tbaa !3
  %78 = getelementptr inbounds nuw %struct._GLFWwindow, ptr %77, i32 0, i32 31
  %79 = getelementptr inbounds nuw %struct._GLFWwindowWayland, ptr %78, i32 0, i32 1
  %80 = load i32, ptr %79, align 4, !tbaa !146
  store i32 %80, ptr %6, align 4, !tbaa !129
  store i32 %80, ptr %4, align 4, !tbaa !129
  br label %81

81:                                               ; preds = %72, %71
  %82 = load ptr, ptr %2, align 8, !tbaa !3
  %83 = getelementptr inbounds nuw %struct._GLFWwindow, ptr %82, i32 0, i32 31
  %84 = getelementptr inbounds nuw %struct._GLFWwindowWayland, ptr %83, i32 0, i32 15
  %85 = getelementptr inbounds nuw %struct.anon.36, ptr %84, i32 0, i32 1
  %86 = load ptr, ptr %85, align 8, !tbaa !249
  %87 = load i32, ptr %3, align 4, !tbaa !129
  %88 = load i32, ptr %4, align 4, !tbaa !129
  call void @xdg_toplevel_set_min_size(ptr noundef %86, i32 noundef %87, i32 noundef %88)
  %89 = load ptr, ptr %2, align 8, !tbaa !3
  %90 = getelementptr inbounds nuw %struct._GLFWwindow, ptr %89, i32 0, i32 31
  %91 = getelementptr inbounds nuw %struct._GLFWwindowWayland, ptr %90, i32 0, i32 15
  %92 = getelementptr inbounds nuw %struct.anon.36, ptr %91, i32 0, i32 1
  %93 = load ptr, ptr %92, align 8, !tbaa !249
  %94 = load i32, ptr %5, align 4, !tbaa !129
  %95 = load i32, ptr %6, align 4, !tbaa !129
  call void @xdg_toplevel_set_max_size(ptr noundef %93, i32 noundef %94, i32 noundef %95)
  call void @llvm.lifetime.end.p0(i64 4, ptr %6) #9
  call void @llvm.lifetime.end.p0(i64 4, ptr %5) #9
  call void @llvm.lifetime.end.p0(i64 4, ptr %4) #9
  call void @llvm.lifetime.end.p0(i64 4, ptr %3) #9
  ret void
}

; Function Attrs: nounwind uwtable
define hidden void @_glfwSetWindowResizableWayland(ptr noundef %0, i32 noundef %1) #0 {
  %3 = alloca ptr, align 8
  %4 = alloca i32, align 4
  store ptr %0, ptr %3, align 8, !tbaa !3
  store i32 %1, ptr %4, align 4, !tbaa !129
  %5 = load ptr, ptr %3, align 8, !tbaa !3
  %6 = getelementptr inbounds nuw %struct._GLFWwindow, ptr %5, i32 0, i32 31
  %7 = getelementptr inbounds nuw %struct._GLFWwindowWayland, ptr %6, i32 0, i32 16
  %8 = getelementptr inbounds nuw %struct.anon.37, ptr %7, i32 0, i32 0
  %9 = load ptr, ptr %8, align 8, !tbaa !172
  %10 = icmp ne ptr %9, null
  br i1 %10, label %11, label %29

11:                                               ; preds = %2
  %12 = load i32, ptr %4, align 4, !tbaa !129
  %13 = icmp ne i32 %12, 0
  br i1 %13, label %14, label %21

14:                                               ; preds = %11
  %15 = load ptr, ptr getelementptr inbounds nuw (%struct.anon.17, ptr getelementptr inbounds nuw (%struct._GLFWlibraryWayland, ptr getelementptr inbounds nuw (%struct._GLFWlibrary, ptr @_glfw, i32 0, i32 21), i32 0, i32 47), i32 0, i32 21), align 8, !tbaa !291
  %16 = load ptr, ptr %3, align 8, !tbaa !3
  %17 = getelementptr inbounds nuw %struct._GLFWwindow, ptr %16, i32 0, i32 31
  %18 = getelementptr inbounds nuw %struct._GLFWwindowWayland, ptr %17, i32 0, i32 16
  %19 = getelementptr inbounds nuw %struct.anon.37, ptr %18, i32 0, i32 0
  %20 = load ptr, ptr %19, align 8, !tbaa !172
  call void %15(ptr noundef %20, i32 noundef 2)
  br label %28

21:                                               ; preds = %11
  %22 = load ptr, ptr getelementptr inbounds nuw (%struct.anon.17, ptr getelementptr inbounds nuw (%struct._GLFWlibraryWayland, ptr getelementptr inbounds nuw (%struct._GLFWlibrary, ptr @_glfw, i32 0, i32 21), i32 0, i32 47), i32 0, i32 22), align 8, !tbaa !292
  %23 = load ptr, ptr %3, align 8, !tbaa !3
  %24 = getelementptr inbounds nuw %struct._GLFWwindow, ptr %23, i32 0, i32 31
  %25 = getelementptr inbounds nuw %struct._GLFWwindowWayland, ptr %24, i32 0, i32 16
  %26 = getelementptr inbounds nuw %struct.anon.37, ptr %25, i32 0, i32 0
  %27 = load ptr, ptr %26, align 8, !tbaa !172
  call void %22(ptr noundef %27, i32 noundef 2)
  br label %28

28:                                               ; preds = %21, %14
  br label %39

29:                                               ; preds = %2
  %30 = load ptr, ptr %3, align 8, !tbaa !3
  %31 = getelementptr inbounds nuw %struct._GLFWwindow, ptr %30, i32 0, i32 31
  %32 = getelementptr inbounds nuw %struct._GLFWwindowWayland, ptr %31, i32 0, i32 15
  %33 = getelementptr inbounds nuw %struct.anon.36, ptr %32, i32 0, i32 1
  %34 = load ptr, ptr %33, align 8, !tbaa !249
  %35 = icmp ne ptr %34, null
  br i1 %35, label %36, label %38

36:                                               ; preds = %29
  %37 = load ptr, ptr %3, align 8, !tbaa !3
  call void @updateXdgSizeLimits(ptr noundef %37)
  br label %38

38:                                               ; preds = %36, %29
  br label %39

39:                                               ; preds = %38, %28
  ret void
}