; Function Attrs: nounwind uwtable
define hidden void @_glfwSetWindowResizableWayland(ptr noundef readonly captures(none) %0, i32 noundef %1) local_unnamed_addr #0 {
  %3 = getelementptr inbounds nuw i8, ptr %0, i64 984
  %4 = load ptr, ptr %3, align 8, !tbaa !160
  %.not = icmp eq ptr %4, null
  br i1 %.not, label %10, label %5

5:                                                ; preds = %2
  %.not6 = icmp eq i32 %1, 0
  br i1 %.not6, label %8, label %6

6:                                                ; preds = %5
  %7 = load ptr, ptr getelementptr inbounds nuw (i8, ptr @_glfw, i64 137776), align 8, !tbaa !256
  tail call void %7(ptr noundef nonnull %4, i32 noundef 2) #20
  br label %58

8:                                                ; preds = %5
  %9 = load ptr, ptr getelementptr inbounds nuw (i8, ptr @_glfw, i64 137784), align 8, !tbaa !216
  tail call void %9(ptr noundef nonnull %4, i32 noundef 2) #20
  br label %58

10:                                               ; preds = %2
  %11 = getelementptr inbounds nuw i8, ptr %0, i64 960
  %12 = load ptr, ptr %11, align 8, !tbaa !235
  %.not5 = icmp eq ptr %12, null
  br i1 %.not5, label %58, label %13

13:                                               ; preds = %10
  %14 = getelementptr inbounds nuw i8, ptr %0, i64 8
  %15 = load i32, ptr %14, align 8, !tbaa !215
  %.not.i = icmp eq i32 %15, 0
  br i1 %.not.i, label %44, label %16

16:                                               ; preds = %13
  %17 = getelementptr inbounds nuw i8, ptr %0, i64 104
  %18 = load i32, ptr %17, align 8, !tbaa !209
  %19 = icmp eq i32 %18, -1
  br i1 %19, label %30, label %20

20:                                               ; preds = %16
  %21 = getelementptr inbounds nuw i8, ptr %0, i64 108
  %22 = load i32, ptr %21, align 4, !tbaa !210
  %23 = icmp eq i32 %22, -1
  br i1 %23, label %30, label %24

24:                                               ; preds = %20
  %25 = getelementptr inbounds nuw i8, ptr %0, i64 1120
  %26 = load i32, ptr %25, align 8, !tbaa !162
  %.not30.i = icmp eq i32 %26, 0
  br i1 %.not30.i, label %30, label %27

27:                                               ; preds = %24
  %28 = add nsw i32 %18, 8
  %29 = add nsw i32 %22, 28
  br label %30

30:                                               ; preds = %27, %24, %20, %16
  %.024.i = phi i32 [ %28, %27 ], [ %18, %24 ], [ 0, %20 ], [ 0, %16 ]
  %.023.i = phi i32 [ %29, %27 ], [ %22, %24 ], [ 0, %20 ], [ 0, %16 ]
  %31 = getelementptr inbounds nuw i8, ptr %0, i64 112
  %32 = load i32, ptr %31, align 8, !tbaa !212
  %33 = icmp eq i32 %32, -1
  br i1 %33, label %updateXdgSizeLimits.exit, label %34

34:                                               ; preds = %30
  %35 = getelementptr inbounds nuw i8, ptr %0, i64 116
  %36 = load i32, ptr %35, align 4, !tbaa !213
  %37 = icmp eq i32 %36, -1
  br i1 %37, label %updateXdgSizeLimits.exit, label %38

38:                                               ; preds = %34
  %39 = getelementptr inbounds nuw i8, ptr %0, i64 1120
  %40 = load i32, ptr %39, align 8, !tbaa !162
  %.not31.i = icmp eq i32 %40, 0
  br i1 %.not31.i, label %updateXdgSizeLimits.exit, label %41

41:                                               ; preds = %38
  %42 = add nsw i32 %32, 8
  %43 = add nsw i32 %36, 28
  br label %updateXdgSizeLimits.exit

44:                                               ; preds = %13
  %45 = getelementptr inbounds nuw i8, ptr %0, i64 856
  %46 = load i32, ptr %45, align 8, !tbaa !138
  %47 = getelementptr inbounds nuw i8, ptr %0, i64 860
  %48 = load i32, ptr %47, align 4, !tbaa !140
  br label %updateXdgSizeLimits.exit

updateXdgSizeLimits.exit:                         ; preds = %30, %34, %38, %41, %44
  %.125.i = phi i32 [ %.024.i, %41 ], [ %.024.i, %38 ], [ %46, %44 ], [ %.024.i, %34 ], [ %.024.i, %30 ]
  %.1.i = phi i32 [ %.023.i, %41 ], [ %.023.i, %38 ], [ %48, %44 ], [ %.023.i, %34 ], [ %.023.i, %30 ]
  %.022.i = phi i32 [ %42, %41 ], [ %32, %38 ], [ %46, %44 ], [ 0, %34 ], [ 0, %30 ]
  %.0.i = phi i32 [ %43, %41 ], [ %36, %38 ], [ %48, %44 ], [ 0, %34 ], [ 0, %30 ]
  %49 = load ptr, ptr getelementptr inbounds nuw (i8, ptr @_glfw, i64 137528), align 8, !tbaa !136
  %50 = load ptr, ptr getelementptr inbounds nuw (i8, ptr @_glfw, i64 137520), align 8, !tbaa !93
  %51 = tail call i32 %50(ptr noundef nonnull %12) #20
  %52 = tail call ptr (ptr, i32, ptr, i32, i32, ...) %49(ptr noundef nonnull %12, i32 noundef 8, ptr noundef null, i32 noundef %51, i32 noundef 0, i32 noundef %.125.i, i32 noundef %.1.i) #20
  %53 = load ptr, ptr %11, align 8, !tbaa !235
  %54 = load ptr, ptr getelementptr inbounds nuw (i8, ptr @_glfw, i64 137528), align 8, !tbaa !136
  %55 = load ptr, ptr getelementptr inbounds nuw (i8, ptr @_glfw, i64 137520), align 8, !tbaa !93
  %56 = tail call i32 %55(ptr noundef %53) #20
  %57 = tail call ptr (ptr, i32, ptr, i32, i32, ...) %54(ptr noundef %53, i32 noundef 7, ptr noundef null, i32 noundef %56, i32 noundef 0, i32 noundef %.022.i, i32 noundef %.0.i) #20
  br label %58

58:                                               ; preds = %10, %updateXdgSizeLimits.exit, %6, %8
  ret void
}